target datalayout = "e-m:e-p270:32:32-p271:32:32-p272:64:64-i64:64-i128:128-f80:128-n8:16:32:64-S128"
target triple = "x86_64-pc-linux-gnu"

%struct.sp_int = type { i16, i16, [129 x i64] }
%struct.sp_int_minimal = type { i16, i16, [1 x i64] }

; Function Attrs: nounwind uwtable
define void @sp_free(ptr noundef %0) #0 {
  %2 = alloca ptr, align 8
  store ptr %0, ptr %2, align 8, !tbaa !3
  %3 = load ptr, ptr %2, align 8, !tbaa !3
  %4 = icmp ne ptr %3, null
  br i1 %4, label %5, label %6

5:                                                ; preds = %1
  br label %6

6:                                                ; preds = %5, %1
  ret void
}

; Function Attrs: nounwind uwtable
define internal void @_sp_zero(ptr noundef %0) #0 {
  %2 = alloca ptr, align 8
  %3 = alloca ptr, align 8
  store ptr %0, ptr %2, align 8, !tbaa !3
  call void @llvm.lifetime.start.p0(i64 8, ptr %3) #8
  %4 = load ptr, ptr %2, align 8, !tbaa !3
  store ptr %4, ptr %3, align 8, !tbaa !10
  %5 = load ptr, ptr %3, align 8, !tbaa !10
  %6 = getelementptr inbounds nuw %struct.sp_int_minimal, ptr %5, i32 0, i32 0
  store i16 0, ptr %6, align 8, !tbaa !20
  %7 = load ptr, ptr %3, align 8, !tbaa !10
  %8 = getelementptr inbounds nuw %struct.sp_int_minimal, ptr %7, i32 0, i32 2
  %9 = getelementptr inbounds [1 x i64], ptr %8, i64 0, i64 0
  store i64 0, ptr %9, align 8, !tbaa !16
  call void @llvm.lifetime.end.p0(i64 8, ptr %3) #8
  ret void
}

; Function Attrs: nounwind uwtable
define void @sp_clear(ptr noundef %0) #0 {
  %2 = alloca ptr, align 8
  %3 = alloca i32, align 4
  store ptr %0, ptr %2, align 8, !tbaa !3
  %4 = load ptr, ptr %2, align 8, !tbaa !3
  %5 = icmp ne ptr %4, null
  br i1 %5, label %6, label %26

6:                                                ; preds = %1
  call void @llvm.lifetime.start.p0(i64 4, ptr %3) #8
  store i32 0, ptr %3, align 4, !tbaa !8
  br label %7

7:                                                ; preds = %20, %6
  %8 = load i32, ptr %3, align 4, !tbaa !8
  %9 = load ptr, ptr %2, align 8, !tbaa !3
  %10 = getelementptr inbounds nuw %struct.sp_int, ptr %9, i32 0, i32 0
  %11 = load i16, ptr %10, align 8, !tbaa !15
  %12 = zext i16 %11 to i32
  %13 = icmp ult i32 %8, %12
  br i1 %13, label %14, label %23

14:                                               ; preds = %7
  %15 = load ptr, ptr %2, align 8, !tbaa !3
  %16 = getelementptr inbounds nuw %struct.sp_int, ptr %15, i32 0, i32 2
  %17 = load i32, ptr %3, align 4, !tbaa !8
  %18 = zext i32 %17 to i64
  %19 = getelementptr inbounds nuw [129 x i64], ptr %16, i64 0, i64 %18
  store i64 0, ptr %19, align 8, !tbaa !16
  br label %20

20:                                               ; preds = %14
  %21 = load i32, ptr %3, align 4, !tbaa !8
  %22 = add i32 %21, 1
  store i32 %22, ptr %3, align 4, !tbaa !8
  br label %7, !llvm.loop !22

23:                                               ; preds = %7
  %24 = load ptr, ptr %2, align 8, !tbaa !3
  call void @_sp_zero(ptr noundef %24)
  %25 = load ptr, ptr %2, align 8, !tbaa !3
  call void @sp_free(ptr noundef %25)
  call void @llvm.lifetime.end.p0(i64 4, ptr %3) #8
  br label %26

26:                                               ; preds = %23, %1
  ret void
}

; Function Attrs: nounwind uwtable
define internal void @_sp_set(ptr noundef %0, i64 noundef %1) #0 {
  %3 = alloca ptr, align 8
  %4 = alloca i64, align 8
  %5 = alloca ptr, align 8
  store ptr %0, ptr %3, align 8, !tbaa !3
  store i64 %1, ptr %4, align 8, !tbaa !16
  call void @llvm.lifetime.start.p0(i64 8, ptr %5) #8
  %6 = load ptr, ptr %3, align 8, !tbaa !3
  store ptr %6, ptr %5, align 8, !tbaa !10
  %7 = load i64, ptr %4, align 8, !tbaa !16
  %8 = load ptr, ptr %5, align 8, !tbaa !10
  %9 = getelementptr inbounds nuw %struct.sp_int_minimal, ptr %8, i32 0, i32 2
  %10 = getelementptr inbounds [1 x i64], ptr %9, i64 0, i64 0
  store i64 %7, ptr %10, align 8, !tbaa !16
  %11 = load i64, ptr %4, align 8, !tbaa !16
  %12 = icmp ugt i64 %11, 0
  %13 = zext i1 %12 to i32
  %14 = trunc i32 %13 to i16
  %15 = load ptr, ptr %5, align 8, !tbaa !10
  %16 = getelementptr inbounds nuw %struct.sp_int_minimal, ptr %15, i32 0, i32 0
  store i16 %14, ptr %16, align 8, !tbaa !20
  call void @llvm.lifetime.end.p0(i64 8, ptr %5) #8
  ret void
}

; Function Attrs: nounwind uwtable
define internal void @_sp_init_size(ptr noundef %0, i32 noundef %1) #0 {
  %3 = alloca ptr, align 8
  %4 = alloca i32, align 4
  %5 = alloca ptr, align 8
  store ptr %0, ptr %3, align 8, !tbaa !3
  store i32 %1, ptr %4, align 4, !tbaa !8
  call void @llvm.lifetime.start.p0(i64 8, ptr %5) #8
  %6 = load ptr, ptr %3, align 8, !tbaa !3
  store ptr %6, ptr %5, align 8, !tbaa !10
  %7 = load ptr, ptr %5, align 8, !tbaa !10
  call void @_sp_zero(ptr noundef %7)
  %8 = load i32, ptr %4, align 4, !tbaa !8
  %9 = trunc i32 %8 to i16
  %10 = load ptr, ptr %3, align 8, !tbaa !3
  %11 = getelementptr inbounds nuw %struct.sp_int, ptr %10, i32 0, i32 1
  store i16 %9, ptr %11, align 2, !tbaa !12
  call void @llvm.lifetime.end.p0(i64 8, ptr %5) #8
  ret void
}

; Function Attrs: nounwind uwtable
define internal i32 @_sp_prime_trials(ptr noundef %0, i32 noundef %1, ptr noundef %2) #0 {
  %4 = alloca ptr, align 8
  %5 = alloca i32, align 4
  %6 = alloca ptr, align 8
  %7 = alloca i32, align 4
  %8 = alloca i32, align 4
  %9 = alloca ptr, align 8
  %10 = alloca ptr, align 8
  %11 = alloca ptr, align 8
  %12 = alloca i64, align 8
  %13 = alloca [2 x ptr], align 16
  %14 = alloca i64, align 8
  %15 = alloca ptr, align 8
  %16 = alloca i32, align 4
  store ptr %0, ptr %4, align 8, !tbaa !3
  store i32 %1, ptr %5, align 4, !tbaa !8
  store ptr %2, ptr %6, align 8, !tbaa !139
  call void @llvm.lifetime.start.p0(i64 4, ptr %7) #8
  store i32 0, ptr %7, align 4, !tbaa !8
  call void @llvm.lifetime.start.p0(i64 4, ptr %8) #8
  call void @llvm.lifetime.start.p0(i64 8, ptr %9) #8
  call void @llvm.lifetime.start.p0(i64 8, ptr %10) #8
  %17 = load ptr, ptr %4, align 8, !tbaa !3
  %18 = getelementptr inbounds nuw %struct.sp_int, ptr %17, i32 0, i32 0
  %19 = load i16, ptr %18, align 8, !tbaa !15
  %20 = zext i16 %19 to i32
  %21 = add nsw i32 %20, 1
  %22 = icmp sle i32 %21, 1
  br i1 %22, label %23, label %24

23:                                               ; preds = %3
  br label %32

24:                                               ; preds = %3
  %25 = load ptr, ptr %4, align 8, !tbaa !3
  %26 = getelementptr inbounds nuw %struct.sp_int, ptr %25, i32 0, i32 0
  %27 = load i16, ptr %26, align 8, !tbaa !15
  %28 = zext i16 %27 to i32
  %29 = add nsw i32 %28, 1
  %30 = sub nsw i32 %29, 1
  %31 = sext i32 %30 to i64
  br label %32

32:                                               ; preds = %24, %23
  %33 = phi i64 [ 0, %23 ], [ %31, %24 ]
  %34 = mul i64 %33, 8
  %35 = add i64 16, %34
  %36 = mul i64 %35, 2
  %37 = call ptr @llvm.stacksave.p0()
  store ptr %37, ptr %11, align 8
  %38 = alloca i8, i64 %36, align 16
  store i64 %36, ptr %12, align 8
  call void @llvm.lifetime.start.p0(i64 16, ptr %13) #8
  call void @llvm.memset.p0.i64(ptr align 16 %13, i8 0, i64 16, i1 false)
  %39 = load ptr, ptr %4, align 8, !tbaa !3
  %40 = getelementptr inbounds nuw %struct.sp_int, ptr %39, i32 0, i32 0
  %41 = load i16, ptr %40, align 8, !tbaa !15
  %42 = zext i16 %41 to i32
  %43 = mul nsw i32 %42, 2
  %44 = add nsw i32 %43, 1
  %45 = icmp sle i32 %44, 1
  br i1 %45, label %46, label %47

46:                                               ; preds = %32
  br label %56

47:                                               ; preds = %32
  %48 = load ptr, ptr %4, align 8, !tbaa !3
  %49 = getelementptr inbounds nuw %struct.sp_int, ptr %48, i32 0, i32 0
  %50 = load i16, ptr %49, align 8, !tbaa !15
  %51 = zext i16 %50 to i32
  %52 = mul nsw i32 %51, 2
  %53 = add nsw i32 %52, 1
  %54 = sub nsw i32 %53, 1
  %55 = sext i32 %54 to i64
  br label %56

56:                                               ; preds = %47, %46
  %57 = phi i64 [ 0, %46 ], [ %55, %47 ]
  %58 = mul i64 %57, 8
  %59 = add i64 16, %58
  %60 = alloca i8, i64 %59, align 16
  store i64 %59, ptr %14, align 8
  call void @llvm.lifetime.start.p0(i64 8, ptr %15) #8
  store ptr %60, ptr %15, align 8, !tbaa !3
  br label %61

61:                                               ; preds = %56
  %62 = load i32, ptr %7, align 4, !tbaa !8
  %63 = icmp eq i32 %62, 0
  br i1 %63, label %64, label %72

64:                                               ; preds = %61
  %65 = load ptr, ptr %4, align 8, !tbaa !3
  %66 = getelementptr inbounds nuw %struct.sp_int, ptr %65, i32 0, i32 0
  %67 = load i16, ptr %66, align 8, !tbaa !15
  %68 = zext i16 %67 to i32
  %69 = add nsw i32 %68, 1
  %70 = icmp sgt i32 %69, 129
  br i1 %70, label %71, label %72

71:                                               ; preds = %64
  store i32 -98, ptr %7, align 4, !tbaa !8
  br label %72

72:                                               ; preds = %71, %64, %61
  %73 = load i32, ptr %7, align 4, !tbaa !8
  %74 = icmp eq i32 %73, 0
  br i1 %74, label %75, label %133

75:                                               ; preds = %72
  call void @llvm.lifetime.start.p0(i64 4, ptr %16) #8
  %76 = getelementptr inbounds [2 x ptr], ptr %13, i64 0, i64 0
  store ptr %38, ptr %76, align 16, !tbaa !3
  %77 = load ptr, ptr %4, align 8, !tbaa !3
  %78 = getelementptr inbounds nuw %struct.sp_int, ptr %77, i32 0, i32 0
  %79 = load i16, ptr %78, align 8, !tbaa !15
  %80 = zext i16 %79 to i32
  %81 = add nsw i32 %80, 1
  %82 = trunc i32 %81 to i16
  %83 = getelementptr inbounds [2 x ptr], ptr %13, i64 0, i64 0
  %84 = load ptr, ptr %83, align 16, !tbaa !3
  %85 = getelementptr inbounds nuw %struct.sp_int_minimal, ptr %84, i32 0, i32 1
  store i16 %82, ptr %85, align 2, !tbaa !71
  store i32 1, ptr %16, align 4, !tbaa !8
  br label %86

86:                                               ; preds = %129, %75
  %87 = load i32, ptr %16, align 4, !tbaa !8
  %88 = icmp slt i32 %87, 2
  br i1 %88, label %89, label %132

89:                                               ; preds = %86
  %90 = load i32, ptr %16, align 4, !tbaa !8
  %91 = sub nsw i32 %90, 1
  %92 = sext i32 %91 to i64
  %93 = getelementptr inbounds [2 x ptr], ptr %13, i64 0, i64 %92
  %94 = load ptr, ptr %93, align 8, !tbaa !3
  %95 = load ptr, ptr %4, align 8, !tbaa !3
  %96 = getelementptr inbounds nuw %struct.sp_int, ptr %95, i32 0, i32 0
  %97 = load i16, ptr %96, align 8, !tbaa !15
  %98 = zext i16 %97 to i32
  %99 = add nsw i32 %98, 1
  %100 = icmp sle i32 %99, 1
  br i1 %100, label %101, label %102

101:                                              ; preds = %89
  br label %110

102:                                              ; preds = %89
  %103 = load ptr, ptr %4, align 8, !tbaa !3
  %104 = getelementptr inbounds nuw %struct.sp_int, ptr %103, i32 0, i32 0
  %105 = load i16, ptr %104, align 8, !tbaa !15
  %106 = zext i16 %105 to i32
  %107 = add nsw i32 %106, 1
  %108 = sub nsw i32 %107, 1
  %109 = sext i32 %108 to i64
  br label %110

110:                                              ; preds = %102, %101
  %111 = phi i64 [ 0, %101 ], [ %109, %102 ]
  %112 = mul i64 %111, 8
  %113 = add i64 16, %112
  %114 = getelementptr inbounds nuw i8, ptr %94, i64 %113
  %115 = load i32, ptr %16, align 4, !tbaa !8
  %116 = sext i32 %115 to i64
  %117 = getelementptr inbounds [2 x ptr], ptr %13, i64 0, i64 %116
  store ptr %114, ptr %117, align 8, !tbaa !3
  %118 = load ptr, ptr %4, align 8, !tbaa !3
  %119 = getelementptr inbounds nuw %struct.sp_int, ptr %118, i32 0, i32 0
  %120 = load i16, ptr %119, align 8, !tbaa !15
  %121 = zext i16 %120 to i32
  %122 = add nsw i32 %121, 1
  %123 = trunc i32 %122 to i16
  %124 = load i32, ptr %16, align 4, !tbaa !8
  %125 = sext i32 %124 to i64
  %126 = getelementptr inbounds [2 x ptr], ptr %13, i64 0, i64 %125
  %127 = load ptr, ptr %126, align 8, !tbaa !3
  %128 = getelementptr inbounds nuw %struct.sp_int_minimal, ptr %127, i32 0, i32 1
  store i16 %123, ptr %128, align 2, !tbaa !71
  br label %129

129:                                              ; preds = %110
  %130 = load i32, ptr %16, align 4, !tbaa !8
  %131 = add nsw i32 %130, 1
  store i32 %131, ptr %16, align 4, !tbaa !8
  br label %86, !llvm.loop !145

132:                                              ; preds = %86
  call void @llvm.lifetime.end.p0(i64 4, ptr %16) #8
  br label %133

133:                                              ; preds = %132, %72
  br label %134

134:                                              ; preds = %133
  br label %135

135:                                              ; preds = %134
  br label %136

136:                                              ; preds = %135
  %137 = load i32, ptr %7, align 4, !tbaa !8
  %138 = icmp eq i32 %137, 0
  br i1 %138, label %139, label %148

139:                                              ; preds = %136
  %140 = load ptr, ptr %4, align 8, !tbaa !3
  %141 = getelementptr inbounds nuw %struct.sp_int, ptr %140, i32 0, i32 0
  %142 = load i16, ptr %141, align 8, !tbaa !15
  %143 = zext i16 %142 to i32
  %144 = mul nsw i32 %143, 2
  %145 = add nsw i32 %144, 1
  %146 = icmp sgt i32 %145, 129
  br i1 %146, label %147, label %148

147:                                              ; preds = %139
  store i32 -98, ptr %7, align 4, !tbaa !8
  br label %148

148:                                              ; preds = %147, %139, %136
  br label %149

149:                                              ; preds = %148
  br label %150

150:                                              ; preds = %149
  %151 = load i32, ptr %7, align 4, !tbaa !8
  %152 = icmp eq i32 %151, 0
  br i1 %152, label %153, label %211

153:                                              ; preds = %150
  %154 = getelementptr inbounds [2 x ptr], ptr %13, i64 0, i64 0
  %155 = load ptr, ptr %154, align 16, !tbaa !3
  store ptr %155, ptr %9, align 8, !tbaa !3
  %156 = getelementptr inbounds [2 x ptr], ptr %13, i64 0, i64 1
  %157 = load ptr, ptr %156, align 8, !tbaa !3
  store ptr %157, ptr %10, align 8, !tbaa !3
  %158 = load ptr, ptr %9, align 8, !tbaa !3
  %159 = load ptr, ptr %4, align 8, !tbaa !3
  %160 = getelementptr inbounds nuw %struct.sp_int, ptr %159, i32 0, i32 0
  %161 = load i16, ptr %160, align 8, !tbaa !15
  %162 = zext i16 %161 to i32
  %163 = add i32 %162, 1
  call void @_sp_init_size(ptr noundef %158, i32 noundef %163)
  %164 = load ptr, ptr %10, align 8, !tbaa !3
  %165 = load ptr, ptr %4, align 8, !tbaa !3
  %166 = getelementptr inbounds nuw %struct.sp_int, ptr %165, i32 0, i32 0
  %167 = load i16, ptr %166, align 8, !tbaa !15
  %168 = zext i16 %167 to i32
  %169 = add i32 %168, 1
  call void @_sp_init_size(ptr noundef %164, i32 noundef %169)
  %170 = load ptr, ptr %15, align 8, !tbaa !3
  %171 = load ptr, ptr %4, align 8, !tbaa !3
  %172 = getelementptr inbounds nuw %struct.sp_int, ptr %171, i32 0, i32 0
  %173 = load i16, ptr %172, align 8, !tbaa !15
  %174 = zext i16 %173 to i32
  %175 = mul i32 %174, 2
  %176 = add i32 %175, 1
  %177 = trunc i32 %176 to i16
  %178 = zext i16 %177 to i32
  call void @_sp_init_size(ptr noundef %170, i32 noundef %178)
  store i32 0, ptr %8, align 4, !tbaa !8
  br label %179

179:                                              ; preds = %204, %153
  %180 = load i32, ptr %8, align 4, !tbaa !8
  %181 = load i32, ptr %5, align 4, !tbaa !8
  %182 = icmp slt i32 %180, %181
  br i1 %182, label %183, label %207

183:                                              ; preds = %179
  %184 = load ptr, ptr %15, align 8, !tbaa !3
  %185 = load i32, ptr %8, align 4, !tbaa !8
  %186 = sext i32 %185 to i64
  %187 = getelementptr inbounds [256 x i16], ptr @sp_primes, i64 0, i64 %186
  %188 = load i16, ptr %187, align 2, !tbaa !32
  %189 = zext i16 %188 to i64
  call void @_sp_set(ptr noundef %184, i64 noundef %189)
  %190 = load ptr, ptr %4, align 8, !tbaa !3
  %191 = load ptr, ptr %15, align 8, !tbaa !3
  %192 = load ptr, ptr %6, align 8, !tbaa !139
  %193 = load ptr, ptr %9, align 8, !tbaa !3
  %194 = load ptr, ptr %10, align 8, !tbaa !3
  %195 = call i32 @sp_prime_miller_rabin(ptr noundef %190, ptr noundef %191, ptr noundef %192, ptr noundef %193, ptr noundef %194)
  store i32 %195, ptr %7, align 4, !tbaa !8
  %196 = load i32, ptr %7, align 4, !tbaa !8
  %197 = icmp ne i32 %196, 0
  br i1 %197, label %202, label %198

198:                                              ; preds = %183
  %199 = load ptr, ptr %6, align 8, !tbaa !139
  %200 = load i32, ptr %199, align 4, !tbaa !8
  %201 = icmp eq i32 %200, 0
  br i1 %201, label %202, label %203

202:                                              ; preds = %198, %183
  br label %207

203:                                              ; preds = %198
  br label %204

204:                                              ; preds = %203
  %205 = load i32, ptr %8, align 4, !tbaa !8
  %206 = add nsw i32 %205, 1
  store i32 %206, ptr %8, align 4, !tbaa !8
  br label %179, !llvm.loop !146

207:                                              ; preds = %202, %179
  %208 = load ptr, ptr %9, align 8, !tbaa !3
  call void @sp_clear(ptr noundef %208)
  %209 = load ptr, ptr %10, align 8, !tbaa !3
  call void @sp_clear(ptr noundef %209)
  %210 = load ptr, ptr %15, align 8, !tbaa !3
  call void @sp_clear(ptr noundef %210)
  br label %211

211:                                              ; preds = %207, %150
  br label %212

212:                                              ; preds = %211
  br label %213

213:                                              ; preds = %212
  br label %214

214:                                              ; preds = %213
  br label %215

215:                                              ; preds = %214
  br label %216

216:                                              ; preds = %215
  br label %217

217:                                              ; preds = %216
  %218 = load i32, ptr %7, align 4, !tbaa !8
  call void @llvm.lifetime.end.p0(i64 8, ptr %15) #8
  call void @llvm.lifetime.end.p0(i64 16, ptr %13) #8
  %219 = load ptr, ptr %11, align 8
  call void @llvm.stackrestore.p0(ptr %219)
  call void @llvm.lifetime.end.p0(i64 8, ptr %10) #8
  call void @llvm.lifetime.end.p0(i64 8, ptr %9) #8
  call void @llvm.lifetime.end.p0(i64 4, ptr %8) #8
  call void @llvm.lifetime.end.p0(i64 4, ptr %7) #8
  ret i32 %218
}