; Function Attrs: nofree norecurse nosync nounwind memory(readwrite, inaccessiblemem: none) uwtable
define internal fastcc range(i32 -98, 1) i32 @_sp_prime_trials(ptr noundef captures(address) %0, i32 noundef %1, ptr noundef captures(none) %2) unnamed_addr #11 {
  %4 = load i16, ptr %0, align 8, !tbaa !12
  %5 = zext i16 %4 to i64
  %6 = shl nuw nsw i64 %5, 4
  %7 = add nuw nsw i64 %6, 32
  %8 = alloca i8, i64 %7, align 16
  %9 = add nuw nsw i64 %6, 16
  %10 = alloca i8, i64 %9, align 16
  %11 = icmp ult i16 %4, 129
  br i1 %11, label %.critedge, label %.critedge46.thread65

.critedge:                                        ; preds = %3
  %12 = shl nuw nsw i64 %5, 3
  %13 = getelementptr inbounds nuw i8, ptr %8, i64 %12
  %14 = getelementptr inbounds nuw i8, ptr %13, i64 16
  %15 = icmp samesign ugt i16 %4, 64
  br i1 %15, label %.critedge46.thread65, label %.critedge46.thread

.critedge46.thread:                               ; preds = %.critedge
  %16 = getelementptr inbounds nuw i8, ptr %13, i64 18
  %17 = getelementptr inbounds nuw i8, ptr %8, i64 2
  %18 = add nuw nsw i16 %4, 1
  store i16 0, ptr %8, align 16, !tbaa !3
  %19 = getelementptr inbounds nuw i8, ptr %8, i64 8
  store i64 0, ptr %19, align 8, !tbaa !8
  store i16 %18, ptr %17, align 2, !tbaa !10
  store i16 0, ptr %14, align 8, !tbaa !3
  %20 = getelementptr inbounds nuw i8, ptr %13, i64 24
  store i64 0, ptr %20, align 8, !tbaa !8
  store i16 %18, ptr %16, align 2, !tbaa !10
  %21 = shl nuw nsw i16 %4, 1
  %22 = or disjoint i16 %21, 1
  store i16 0, ptr %10, align 16, !tbaa !3
  %23 = getelementptr inbounds nuw i8, ptr %10, i64 8
  %24 = getelementptr inbounds nuw i8, ptr %10, i64 2
  store i16 %22, ptr %24, align 2, !tbaa !10
  %25 = icmp sgt i32 %1, 0
  br i1 %25, label %.lr.ph.preheader, label %.critedge46.thread65

.lr.ph.preheader:                                 ; preds = %.critedge46.thread
  %wide.trip.count = zext nneg i32 %1 to i64
  br label %.lr.ph

.lr.ph:                                           ; preds = %30, %.lr.ph.preheader
  %indvars.iv = phi i64 [ 0, %.lr.ph.preheader ], [ %indvars.iv.next, %30 ]
  %26 = getelementptr inbounds nuw [256 x i16], ptr @sp_primes, i64 0, i64 %indvars.iv
  %27 = load i16, ptr %26, align 2, !tbaa !72
  %28 = zext i16 %27 to i64
  store i64 %28, ptr %23, align 8, !tbaa !8
  store i16 1, ptr %10, align 16, !tbaa !3
  %29 = call fastcc i32 @sp_prime_miller_rabin(ptr noundef nonnull %0, ptr noundef nonnull %10, ptr noundef %2, ptr noundef nonnull %8, ptr noundef nonnull %14)
  %.not = icmp eq i32 %29, 0
  br i1 %.not, label %30, label %.critedge46.thread65

30:                                               ; preds = %.lr.ph
  %31 = load i32, ptr %2, align 4, !tbaa !123
  %32 = icmp eq i32 %31, 0
  %indvars.iv.next = add nuw nsw i64 %indvars.iv, 1
  %exitcond.not = icmp eq i64 %indvars.iv.next, %wide.trip.count
  %or.cond = select i1 %32, i1 true, i1 %exitcond.not
  br i1 %or.cond, label %.critedge46.thread65, label %.lr.ph, !llvm.loop !129

.critedge46.thread65:                             ; preds = %.lr.ph, %30, %.critedge46.thread, %3, %.critedge
  %.4 = phi i32 [ -98, %.critedge ], [ -98, %3 ], [ 0, %.critedge46.thread ], [ %29, %30 ], [ %29, %.lr.ph ]
  ret i32 %.4
}